; Function Attrs: mustprogress nounwind uwtable
define internal fastcc void @_ZNSt8_Rb_treeIN12_GLOBAL__N_116ActionDescriptorES1_St9_IdentityIS1_ESt8functionIFbN6cmList15TransformActionES6_EESaIS1_EE10_Auto_nodeD2Ev(ptr %.8.val) unnamed_addr #6 align 2 personality ptr @__gxx_personality_v0 {
  %.not = icmp eq ptr %.8.val, null
  br i1 %.not, label %8, label %1

1:                                                ; preds = %0
  %2 = getelementptr inbounds i8, ptr %.8.val, i64 80
  %3 = load ptr, ptr %2, align 8
  %.not.i.i.i.i.i.i = icmp eq ptr %3, null
  br i1 %.not.i.i.i.i.i.i, label %_ZNSt8_Rb_treeIN12_GLOBAL__N_116ActionDescriptorES1_St9_IdentityIS1_ESt8functionIFbN6cmList15TransformActionES6_EESaIS1_EE12_M_drop_nodeEPSt13_Rb_tree_nodeIS1_E.exit, label %_ZNKSt14default_deleteIN12_GLOBAL__N_115TransformActionEEclEPS1_.exit.i.i.i.i.i.i

_ZNKSt14default_deleteIN12_GLOBAL__N_115TransformActionEEclEPS1_.exit.i.i.i.i.i.i: ; preds = %1
  %4 = load ptr, ptr %3, align 8
  %5 = getelementptr inbounds i8, ptr %4, i64 8
  %6 = load ptr, ptr %5, align 8
  tail call void %6(ptr noundef nonnull align 8 dereferenceable(16) %3) #27
  br label %_ZNSt8_Rb_treeIN12_GLOBAL__N_116ActionDescriptorES1_St9_IdentityIS1_ESt8functionIFbN6cmList15TransformActionES6_EESaIS1_EE12_M_drop_nodeEPSt13_Rb_tree_nodeIS1_E.exit

_ZNSt8_Rb_treeIN12_GLOBAL__N_116ActionDescriptorES1_St9_IdentityIS1_ESt8functionIFbN6cmList15TransformActionES6_EESaIS1_EE12_M_drop_nodeEPSt13_Rb_tree_nodeIS1_E.exit: ; preds = %1, %_ZNKSt14default_deleteIN12_GLOBAL__N_115TransformActionEEclEPS1_.exit.i.i.i.i.i.i
  store ptr null, ptr %2, align 8
  %7 = getelementptr inbounds i8, ptr %.8.val, i64 40
  tail call void @_ZNSt7__cxx1112basic_stringIcSt11char_traitsIcESaIcEED1Ev(ptr noundef nonnull align 8 dereferenceable(32) %7) #27
  tail call void @_ZdlPv(ptr noundef nonnull %.8.val) #29
  br label %8

8:                                                ; preds = %_ZNSt8_Rb_treeIN12_GLOBAL__N_116ActionDescriptorES1_St9_IdentityIS1_ESt8functionIFbN6cmList15TransformActionES6_EESaIS1_EE12_M_drop_nodeEPSt13_Rb_tree_nodeIS1_E.exit, %0
  ret void
}